target datalayout = "e-m:e-p270:32:32-p271:32:32-p272:64:64-i64:64-i128:128-f80:128-n8:16:32:64-S128"
target triple = "x86_64-pc-linux-gnu"

%struct.SDL_Touch = type { i64, i32, i32, i32, ptr, ptr }
%struct.SDL_VideoDevice = type { ptr, ptr, ptr, ptr, ptr, ptr, ptr, ptr, ptr, ptr, ptr, ptr, ptr, ptr, ptr, ptr, ptr, ptr, ptr, ptr, ptr, ptr, ptr, ptr, ptr, ptr, ptr, ptr, ptr, ptr, ptr, ptr, ptr, ptr, ptr, ptr, ptr, ptr, ptr, ptr, ptr, ptr, ptr, ptr, ptr, ptr, ptr, ptr, ptr, ptr, ptr, ptr, ptr, ptr, ptr, ptr, ptr, ptr, ptr, ptr, ptr, ptr, ptr, ptr, ptr, ptr, ptr, ptr, ptr, ptr, ptr, ptr, ptr, ptr, ptr, ptr, ptr, ptr, ptr, ptr, ptr, ptr, ptr, ptr, ptr, ptr, ptr, ptr, ptr, ptr, ptr, ptr, ptr, ptr, ptr, ptr, ptr, i64, i8, i8, i8, ptr, i32, ptr, %struct.SDL_Rect, ptr, ptr, i32, ptr, ptr, ptr, ptr, i64, ptr, i8, i32, i32, %struct.anon, ptr, ptr, ptr, ptr, ptr, ptr, %struct.SDL_AtomicInt, %struct.SDL_AtomicInt, i8, %struct.anon.0, ptr, ptr, ptr, ptr, ptr }
%struct.SDL_Rect = type { i32, i32, i32, i32 }
%struct.anon = type { i32, i32, i32, i32, i32, i32, i32, i32, i32, i32, i32, i32, i32, i32, i32, i32, i32, i32, i32, i32, i32, i32, i32, i32, i32, i32, i32, i32, i32, [256 x i8], ptr }
%struct.SDL_AtomicInt = type { i32 }
%struct.anon.0 = type { ptr, ptr, i32, [256 x i8], ptr }

@SDL_num_touch = internal global i32 0, align 4
@SDL_touchDevices = internal global ptr null, align 8
@.str = private unnamed_addr constant [31 x i8] c"Unknown touch id %d, resetting\00", align 1
@.str.1 = private unnamed_addr constant [41 x i8] c"Unknown touch device id %d, cannot reset\00", align 1

; Function Attrs: nounwind uwtable
define internal i32 @SDL_GetTouchIndex(i64 noundef %0) #0 {
  %2 = alloca i32, align 4
  %3 = alloca i64, align 8
  %4 = alloca i32, align 4
  %5 = alloca ptr, align 8
  %6 = alloca i32, align 4
  store i64 %0, ptr %3, align 8
  call void @llvm.lifetime.start.p0(i64 4, ptr %4) #5
  call void @llvm.lifetime.start.p0(i64 8, ptr %5) #5
  store i32 0, ptr %4, align 4
  br label %7

7:                                                ; preds = %25, %1
  %8 = load i32, ptr %4, align 4
  %9 = load i32, ptr @SDL_num_touch, align 4
  %10 = icmp slt i32 %8, %9
  br i1 %10, label %11, label %28

11:                                               ; preds = %7
  %12 = load ptr, ptr @SDL_touchDevices, align 8
  %13 = load i32, ptr %4, align 4
  %14 = sext i32 %13 to i64
  %15 = getelementptr inbounds ptr, ptr %12, i64 %14
  %16 = load ptr, ptr %15, align 8
  store ptr %16, ptr %5, align 8
  %17 = load ptr, ptr %5, align 8
  %18 = getelementptr inbounds nuw %struct.SDL_Touch, ptr %17, i32 0, i32 0
  %19 = load i64, ptr %18, align 8
  %20 = load i64, ptr %3, align 8
  %21 = icmp eq i64 %19, %20
  br i1 %21, label %22, label %24

22:                                               ; preds = %11
  %23 = load i32, ptr %4, align 4
  store i32 %23, ptr %2, align 4
  store i32 1, ptr %6, align 4
  br label %29

24:                                               ; preds = %11
  br label %25

25:                                               ; preds = %24
  %26 = load i32, ptr %4, align 4
  %27 = add nsw i32 %26, 1
  store i32 %27, ptr %4, align 4
  br label %7, !llvm.loop !5

28:                                               ; preds = %7
  store i32 -1, ptr %2, align 4
  store i32 1, ptr %6, align 4
  br label %29

29:                                               ; preds = %28, %22
  call void @llvm.lifetime.end.p0(i64 8, ptr %5) #5
  call void @llvm.lifetime.end.p0(i64 4, ptr %4) #5
  %30 = load i32, ptr %2, align 4
  ret i32 %30
}

; Function Attrs: nounwind uwtable
define hidden ptr @SDL_GetTouch(i64 noundef %0) #0 {
  %2 = alloca ptr, align 8
  %3 = alloca i64, align 8
  %4 = alloca i32, align 4
  %5 = alloca i32, align 4
  store i64 %0, ptr %3, align 8
  call void @llvm.lifetime.start.p0(i64 4, ptr %4) #5
  %6 = load i64, ptr %3, align 8
  %7 = call i32 @SDL_GetTouchIndex(i64 noundef %6)
  store i32 %7, ptr %4, align 4
  %8 = load i32, ptr %4, align 4
  %9 = icmp slt i32 %8, 0
  br i1 %9, label %14, label %10

10:                                               ; preds = %1
  %11 = load i32, ptr %4, align 4
  %12 = load i32, ptr @SDL_num_touch, align 4
  %13 = icmp sge i32 %11, %12
  br i1 %13, label %14, label %40

14:                                               ; preds = %10, %1
  %15 = load i64, ptr %3, align 8
  %16 = icmp eq i64 %15, -1
  br i1 %16, label %20, label %17

17:                                               ; preds = %14
  %18 = load i64, ptr %3, align 8
  %19 = icmp eq i64 %18, -2
  br i1 %19, label %20, label %21

20:                                               ; preds = %17, %14
  br label %39

21:                                               ; preds = %17
  %22 = call ptr @SDL_GetVideoDevice()
  %23 = getelementptr inbounds nuw %struct.SDL_VideoDevice, ptr %22, i32 0, i32 3
  %24 = load ptr, ptr %23, align 8
  %25 = icmp ne ptr %24, null
  br i1 %25, label %26, label %34

26:                                               ; preds = %21
  %27 = load i64, ptr %3, align 8
  %28 = trunc i64 %27 to i32
  %29 = call zeroext i1 (ptr, ...) @SDL_SetError_REAL(ptr noundef @.str, i32 noundef %28)
  %30 = call ptr @SDL_GetVideoDevice()
  %31 = getelementptr inbounds nuw %struct.SDL_VideoDevice, ptr %30, i32 0, i32 3
  %32 = load ptr, ptr %31, align 8
  %33 = call ptr @SDL_GetVideoDevice()
  call void %32(ptr noundef %33)
  br label %38

34:                                               ; preds = %21
  %35 = load i64, ptr %3, align 8
  %36 = trunc i64 %35 to i32
  %37 = call zeroext i1 (ptr, ...) @SDL_SetError_REAL(ptr noundef @.str.1, i32 noundef %36)
  br label %38

38:                                               ; preds = %34, %26
  br label %39

39:                                               ; preds = %38, %20
  store ptr null, ptr %2, align 8
  store i32 1, ptr %5, align 4
  br label %46

40:                                               ; preds = %10
  %41 = load ptr, ptr @SDL_touchDevices, align 8
  %42 = load i32, ptr %4, align 4
  %43 = sext i32 %42 to i64
  %44 = getelementptr inbounds ptr, ptr %41, i64 %43
  %45 = load ptr, ptr %44, align 8
  store ptr %45, ptr %2, align 8
  store i32 1, ptr %5, align 4
  br label %46

46:                                               ; preds = %40, %39
  call void @llvm.lifetime.end.p0(i64 4, ptr %4) #5
  %47 = load ptr, ptr %2, align 8
  ret ptr %47
}