; Function Attrs: nounwind uwtable
define hidden ptr @SDL_GetTouch(i64 noundef %0) local_unnamed_addr #2 {
  %2 = load i32, ptr @SDL_num_touch, align 4
  %3 = icmp sgt i32 %2, 0
  br i1 %3, label %.lr.ph.i, label %SDL_GetTouchIndex.exit.thread

.lr.ph.i:                                         ; preds = %1
  %4 = load ptr, ptr @SDL_touchDevices, align 8
  %wide.trip.count.i = zext nneg i32 %2 to i64
  br label %5

5:                                                ; preds = %10, %.lr.ph.i
  %indvars.iv.i = phi i64 [ 0, %.lr.ph.i ], [ %indvars.iv.next.i, %10 ]
  %6 = getelementptr inbounds nuw ptr, ptr %4, i64 %indvars.iv.i
  %7 = load ptr, ptr %6, align 8
  %8 = load i64, ptr %7, align 8
  %9 = icmp eq i64 %8, %0
  br i1 %9, label %SDL_GetTouchIndex.exit, label %10

10:                                               ; preds = %5
  %indvars.iv.next.i = add nuw nsw i64 %indvars.iv.i, 1
  %exitcond.not.i = icmp eq i64 %indvars.iv.next.i, %wide.trip.count.i
  br i1 %exitcond.not.i, label %SDL_GetTouchIndex.exit.thread, label %5, !llvm.loop !5

SDL_GetTouchIndex.exit:                           ; preds = %5
  %11 = trunc nuw nsw i64 %indvars.iv.i to i32
  %.not = icmp sgt i32 %2, %11
  br i1 %.not, label %25, label %SDL_GetTouchIndex.exit.thread

SDL_GetTouchIndex.exit.thread:                    ; preds = %10, %1, %SDL_GetTouchIndex.exit
  %or.cond = icmp ugt i64 %0, -3
  br i1 %or.cond, label %29, label %12

12:                                               ; preds = %SDL_GetTouchIndex.exit.thread
  %13 = tail call ptr @SDL_GetVideoDevice() #7
  %14 = getelementptr inbounds nuw i8, ptr %13, i64 24
  %15 = load ptr, ptr %14, align 8
  %.not11 = icmp eq ptr %15, null
  %16 = trunc i64 %0 to i32
  br i1 %.not11, label %23, label %17

17:                                               ; preds = %12
  %18 = tail call zeroext i1 (ptr, ...) @SDL_SetError_REAL(ptr noundef nonnull @.str, i32 noundef %16) #7
  %19 = tail call ptr @SDL_GetVideoDevice() #7
  %20 = getelementptr inbounds nuw i8, ptr %19, i64 24
  %21 = load ptr, ptr %20, align 8
  %22 = tail call ptr @SDL_GetVideoDevice() #7
  tail call void %21(ptr noundef %22) #7
  br label %29

23:                                               ; preds = %12
  %24 = tail call zeroext i1 (ptr, ...) @SDL_SetError_REAL(ptr noundef nonnull @.str.1, i32 noundef %16) #7
  br label %29

25:                                               ; preds = %SDL_GetTouchIndex.exit
  %26 = and i64 %indvars.iv.i, 4294967295
  %27 = getelementptr inbounds nuw ptr, ptr %4, i64 %26
  %28 = load ptr, ptr %27, align 8
  br label %29

29:                                               ; preds = %SDL_GetTouchIndex.exit.thread, %23, %17, %25
  %.0 = phi ptr [ %28, %25 ], [ null, %17 ], [ null, %23 ], [ null, %SDL_GetTouchIndex.exit.thread ]
  ret ptr %.0
}